
a.out:     file format elf64-x86-64
a.out

Contents of section .interp:
 400200 2f6c6962 36342f6c 642d6c69 6e75782d  /lib64/ld-linux-
 400210 7838362d 36342e73 6f2e3200           x86-64.so.2.    
Contents of section .note.ABI-tag:
 40021c 04000000 10000000 01000000 474e5500  ............GNU.
 40022c 00000000 02000000 06000000 12000000  ................
Contents of section .note.gnu.build-id:
 40023c 04000000 14000000 03000000 474e5500  ............GNU.
 40024c e923d1ec c04acc99 014db0c1 d9c1828d  .#...J...M......
 40025c 1eb87b3f                             ..{?            
Contents of section .gnu.hash:
 400260 01000000 01000000 01000000 00000000  ................
 400270 00000000 00000000 00000000           ............    
Contents of section .dynsym:
 400280 00000000 00000000 00000000 00000000  ................
 400290 00000000 00000000 1f000000 12000000  ................
 4002a0 00000000 00000000 00000000 00000000  ................
 4002b0 01000000 20000000 00000000 00000000  .... ...........
 4002c0 00000000 00000000 1a000000 12000000  ................
 4002d0 00000000 00000000 00000000 00000000  ................
 4002e0 26000000 12000000 00000000 00000000  &...............
 4002f0 00000000 00000000                    ........        
Contents of section .dynstr:
 4002f8 005f5f67 6d6f6e5f 73746172 745f5f00  .__gmon_start__.
 400308 6c696263 2e736f2e 36007075 74730070  libc.so.6.puts.p
 400318 72696e74 66005f5f 6c696263 5f737461  rintf.__libc_sta
 400328 72745f6d 61696e00 474c4942 435f322e  rt_main.GLIBC_2.
 400338 322e3500                             2.5.            
Contents of section .gnu.version:
 40033c 00000200 00000200 0200               ..........      
Contents of section .gnu.version_r:
 400348 01000100 10000000 10000000 00000000  ................
 400358 751a6909 00000200 38000000 00000000  u.i.....8.......
Contents of section .rela.dyn:
 400368 28096000 00000000 06000000 02000000  (.`.............
 400378 00000000 00000000                    ........        
Contents of section .rela.plt:
 400380 48096000 00000000 07000000 01000000  H.`.............
 400390 00000000 00000000 50096000 00000000  ........P.`.....
 4003a0 07000000 03000000 00000000 00000000  ................
 4003b0 58096000 00000000 07000000 04000000  X.`.............
 4003c0 00000000 00000000                    ........        
Contents of section .init:
 4003c8 4883ec08 e87b0000 00e80a01 0000e845  H....{.........E
 4003d8 02000048 83c408c3                    ...H....        
Contents of section .plt:
 4003e0 ff355205 2000ff25 54052000 0f1f4000  .5R. ..%T. ...@.
 4003f0 ff255205 20006800 000000e9 e0ffffff  .%R. .h.........
 400400 ff254a05 20006801 000000e9 d0ffffff  .%J. .h.........
 400410 ff254205 20006802 000000e9 c0ffffff  .%B. .h.........
Contents of section .text:
 400420 31ed4989 d15e4889 e24883e4 f0505449  1.I..^H..H...PTI
 400430 c7c08005 400048c7 c1900540 0048c7c7  ....@.H....@.H..
 400440 26054000 e8c7ffff fff49090 4883ec08  &.@.........H...
 400450 488b05d1 04200048 85c07402 ffd04883  H.... .H..t...H.
 400460 c408c390 90909090 90909090 90909090  ................
 400470 554889e5 534883ec 08803df0 04200000  UH..SH....=.. ..
 400480 754bbb88 07600048 8b05ea04 20004881  uK...`.H.... .H.
 400490 eb800760 0048c1fb 034883eb 014839d8  ...`.H...H...H9.
 4004a0 7324660f 1f440000 4883c001 488905c5  s$f..D..H...H...
 4004b0 042000ff 14c58007 6000488b 05b70420  . ......`.H.... 
 4004c0 004839d8 72e2c605 a3042000 014883c4  .H9.r..... ..H..
 4004d0 085bc9c3 6666662e 0f1f8400 00000000  .[..fff.........
 4004e0 48833da8 02200000 554889e5 7412b800  H.=.. ..UH..t...
 4004f0 00000048 85c07408 bf900760 00c9ffe0  ...H..t....`....
 400500 c9c39090 554889e5 4883ec10 897dfc83  ....UH..H....}..
 400510 7dfc0074 0abf7806 4000e8e1 feffffb8  }..t..x.@.......
 400520 00000000 c9c35548 89e55348 83ec2889  ......UH..SH..(.
 400530 7ddc4889 75d0c745 ec000000 008b3521  }.H.u..E......5!
 400540 0420008b 0d1b0420 008b1519 0420008b  . ..... ..... ..
 400550 1d130420 00b88006 40004189 f089de48  ... ....@.A....H
 400560 89c7b800 000000e8 84feffff bf010000  ................
 400570 00e88eff ffff8b45 ec4883c4 285bc9c3  .......E.H..([..
 400580 f3c36666 6666662e 0f1f8400 00000000  ..fffff.........
 400590 48896c24 d84c8964 24e0488d 2dcb0120  H.l$.L.d$.H.-.. 
 4005a0 004c8d25 c4012000 4c896c24 e84c8974  .L.%.. .L.l$.L.t
 4005b0 24f04c89 7c24f848 895c24d0 4883ec38  $.L.|$.H.\$.H..8
 4005c0 4c29e541 89fd4989 f648c1fd 034989d7  L).A..I..H...I..
 4005d0 e8f3fdff ff4885ed 741c31db 0f1f4000  .....H..t.1...@.
 4005e0 4c89fa4c 89f64489 ef41ff14 dc4883c3  L..L..D..A...H..
 4005f0 014839eb 72ea488b 5c240848 8b6c2410  .H9.r.H.\$.H.l$.
 400600 4c8b6424 184c8b6c 24204c8b 7424284c  L.d$.L.l$ L.t$(L
 400610 8b7c2430 4883c438 c3909090 90909090  .|$0H..8........
 400620 554889e5 534883ec 08488b05 40012000  UH..SH...H..@. .
 400630 4883f8ff 7419bb70 0760000f 1f440000  H...t..p.`...D..
 400640 4883eb08 ffd0488b 034883f8 ff75f148  H.....H..H...u.H
 400650 83c4085b c9c39090                    ...[....        
Contents of section .fini:
 400658 4883ec08 e80ffeff ff4883c4 08c3      H........H....  
Contents of section .rodata:
 400668 01000200 00000000 00000000 00000000  ................
 400678 696e2073 686f7700 696e206d 61696e20  in show.in main 
 400688 73566172 3a252378 3d25642c 67566172  sVar:%#x=%d,gVar
 400698 3a252378 3d256420 0a00               :%#x=%d ..      
Contents of section .eh_frame_hdr:
 4006a4 011b033b 28000000 04000000 60feffff  ...;(.......`...
 4006b4 44000000 82feffff 64000000 dcfeffff  D.......d.......
 4006c4 84000000 ecfeffff 9c000000           ............    
Contents of section .eh_frame:
 4006d0 14000000 00000000 017a5200 01781001  .........zR..x..
 4006e0 1b0c0708 90010000 1c000000 1c000000  ................
 4006f0 14feffff 22000000 00410e10 8602430d  ...."....A....C.
 400700 065d0c07 08000000 1c000000 3c000000  .]..........<...
 400710 16feffff 5a000000 00410e10 8602430d  ....Z....A....C.
 400720 066b8303 6a0c0708 14000000 5c000000  .k..j.......\...
 400730 50feffff 02000000 00000000 00000000  P...............
 400740 24000000 74000000 48feffff 89000000  $...t...H.......
 400750 00518c05 86065f0e 4083078f 028e038d  .Q...._.@.......
 400760 0402580e 08000000 00000000           ..X.........    
Contents of section .ctors:
 600770 ffffffff ffffffff 00000000 00000000  ................
Contents of section .dtors:
 600780 ffffffff ffffffff 00000000 00000000  ................
Contents of section .jcr:
 600790 00000000 00000000                    ........        
Contents of section .dynamic:
 600798 01000000 00000000 10000000 00000000  ................
 6007a8 0c000000 00000000 c8034000 00000000  ..........@.....
 6007b8 0d000000 00000000 58064000 00000000  ........X.@.....
 6007c8 f5feff6f 00000000 60024000 00000000  ...o....`.@.....
 6007d8 05000000 00000000 f8024000 00000000  ..........@.....
 6007e8 06000000 00000000 80024000 00000000  ..........@.....
 6007f8 0a000000 00000000 44000000 00000000  ........D.......
 600808 0b000000 00000000 18000000 00000000  ................
 600818 15000000 00000000 00000000 00000000  ................
 600828 03000000 00000000 30096000 00000000  ........0.`.....
 600838 02000000 00000000 48000000 00000000  ........H.......
 600848 14000000 00000000 07000000 00000000  ................
 600858 17000000 00000000 80034000 00000000  ..........@.....
 600868 07000000 00000000 68034000 00000000  ........h.@.....
 600878 08000000 00000000 18000000 00000000  ................
 600888 09000000 00000000 18000000 00000000  ................
 600898 feffff6f 00000000 48034000 00000000  ...o....H.@.....
 6008a8 ffffff6f 00000000 01000000 00000000  ...o............
 6008b8 f0ffff6f 00000000 3c034000 00000000  ...o....<.@.....
 6008c8 00000000 00000000 00000000 00000000  ................
 6008d8 00000000 00000000 00000000 00000000  ................
 6008e8 00000000 00000000 00000000 00000000  ................
 6008f8 00000000 00000000 00000000 00000000  ................
 600908 00000000 00000000 00000000 00000000  ................
 600918 00000000 00000000 00000000 00000000  ................
Contents of section .got:
 600928 00000000 00000000                    ........        
Contents of section .got.plt:
 600930 98076000 00000000 00000000 00000000  ..`.............
 600940 00000000 00000000 f6034000 00000000  ..........@.....
 600950 06044000 00000000 16044000 00000000  ..@.......@.....
Contents of section .data:
 600960 00000000 0a000000 13000000           ............    
Contents of section .comment:
 0000 4743433a 2028474e 55292034 2e342e37  GCC: (GNU) 4.4.7
 0010 20323031 32303331 33202852 65642048   20120313 (Red H
 0020 61742034 2e342e37 2d313629 00        at 4.4.7-16).   
Contents of section .debug_aranges:
 0000 2c000000 02000000 00000800 00000000  ,...............
 0010 04054000 00000000 7c000000 00000000  ..@.....|.......
 0020 00000000 00000000 00000000 00000000  ................
Contents of section .debug_pubnames:
 0000 38000000 02000000 00005c01 00007200  8.........\...r.
 0010 00007368 6f7700a4 0000006d 61696e00  ..show.....main.
 0020 2f010000 67566172 00450100 00675661  /...gVar.E...gVa
 0030 72556e69 6e697400 00000000           rUninit.....    
Contents of section .debug_info:
 0000 58010000 03000000 00000801 05000000  X...............
 0010 01380000 00510000 00040540 00000000  .8...Q.....@....
 0020 00800540 00000000 00000000 00020807  ...@............
 0030 3f000000 02010875 00000002 0207a000  ?......u........
 0040 00000204 07440000 00020106 77000000  .....D......w...
 0050 020205ba 00000003 0405696e 74000208  ..........int...
 0060 05880000 0004086b 00000002 01067e00  .......k......~.
 0070 00000501 9b000000 01030157 00000004  ...........W....
 0080 05400000 00000026 05400000 00000001  .@.....&.@......
 0090 9ca40000 0006b300 00000103 57000000  ............W...
 00a0 02916c00 05018300 00000111 01570000  ..l..........W..
 00b0 00260540 00000000 00800540 00000000  .&.@.......@....
 00c0 00019c1c 01000006 96000000 01115700  ..............W.
 00d0 00000291 4c06c400 00000111 1c010000  ....L...........
 00e0 02914007 72657400 01135700 00000291  ..@.ret...W.....
 00f0 5c089100 00000114 57000000 09036809  \.......W.....h.
 0100 60000000 000008c9 00000001 15570000  `............W..
 0110 00090380 09600000 00000000 04086500  .....`........e.
 0120 00000900 00000001 0b570000 0001010a  .........W......
 0130 00000000 010b5700 00000109 03640960  ......W......d.`
 0140 00000000 000a2d00 0000010c 57000000  ......-.....W...
 0150 01090384 09600000 00000000           .....`......    
Contents of section .debug_abbrev:
 0000 01110125 0e130b03 0e1b0e11 01120110  ...%............
 0010 06000002 24000b0b 3e0b030e 00000324  ....$...>......$
 0020 000b0b3e 0b030800 00040f00 0b0b4913  ...>..........I.
 0030 0000052e 013f0c03 0e3a0b3b 0b270c49  .....?...:.;.'.I
 0040 13110112 01400a01 13000006 0500030e  .....@..........
 0050 3a0b3b0b 4913020a 00000734 0003083a  :.;.I......4...:
 0060 0b3b0b49 13020a00 00083400 030e3a0b  .;.I......4...:.
 0070 3b0b4913 020a0000 09340003 0e3a0b3b  ;.I......4...:.;
 0080 0b49133f 0c3c0c00 000a3400 030e3a0b  .I.?.<....4...:.
 0090 3b0b4913 3f0c020a 000000             ;.I.?......     
Contents of section .debug_line:
 0000 42000000 02001d00 00000101 fb0e0d00  B...............
 0010 01010101 00000001 00000100 6d61696e  ............main
 0020 2e630000 00000000 09020405 40000000  .c..........@...
 0030 000015ad 67a05903 092ef377 022f14a0  ....g.Y....w./..
 0040 3d020700 0101                        =.....          
Contents of section .debug_str:
 0000 67566172 00474e55 20432034 2e342e37  gVar.GNU C 4.4.7
 0010 20323031 32303331 33202852 65642048   20120313 (Red H
 0020 61742034 2e342e37 2d313629 00675661  at 4.4.7-16).gVa
 0030 72556e69 6e697400 6d61696e 2e63006c  rUninit.main.c.l
 0040 6f6e6720 756e7369 676e6564 20696e74  ong unsigned int
 0050 002f686f 6d652f70 616e6777 7a2f7465  ./home/pangwz/te
 0060 73742f67 6e752f65 6c662f65 7865632d  st/gnu/elf/exec-
 0070 76696577 00756e73 69676e65 64206368  view.unsigned ch
 0080 6172006d 61696e00 6c6f6e67 20696e74  ar.main.long int
 0090 00735661 72006172 67630073 686f7700  .sVar.argc.show.
 00a0 73686f72 7420756e 7369676e 65642069  short unsigned i
 00b0 6e740069 7353686f 77007368 6f727420  nt.isShow.short 
 00c0 696e7400 61726776 00735661 72556e69  int.argv.sVarUni
 00d0 6e697400                             nit.            
Contents of section .debug_pubtypes:
 0000 0e000000 02000000 00005c01 00000000  ..........\.....
 0010 0000                                 ..              

Disassembly of section .init:

00000000004003c8 <_init>:
  4003c8:	48 83 ec 08          	sub    $0x8,%rsp
  4003cc:	e8 7b 00 00 00       	callq  40044c <call_gmon_start>
  4003d1:	e8 0a 01 00 00       	callq  4004e0 <frame_dummy>
  4003d6:	e8 45 02 00 00       	callq  400620 <__do_global_ctors_aux>
  4003db:	48 83 c4 08          	add    $0x8,%rsp
  4003df:	c3                   	retq   

Disassembly of section .plt:

00000000004003e0 <printf@plt-0x10>:
  4003e0:	ff 35 52 05 20 00    	pushq  0x200552(%rip)        # 600938 <_GLOBAL_OFFSET_TABLE_+0x8>
  4003e6:	ff 25 54 05 20 00    	jmpq   *0x200554(%rip)        # 600940 <_GLOBAL_OFFSET_TABLE_+0x10>
  4003ec:	0f 1f 40 00          	nopl   0x0(%rax)

00000000004003f0 <printf@plt>:
  4003f0:	ff 25 52 05 20 00    	jmpq   *0x200552(%rip)        # 600948 <_GLOBAL_OFFSET_TABLE_+0x18>
  4003f6:	68 00 00 00 00       	pushq  $0x0
  4003fb:	e9 e0 ff ff ff       	jmpq   4003e0 <_init+0x18>

0000000000400400 <puts@plt>:
  400400:	ff 25 4a 05 20 00    	jmpq   *0x20054a(%rip)        # 600950 <_GLOBAL_OFFSET_TABLE_+0x20>
  400406:	68 01 00 00 00       	pushq  $0x1
  40040b:	e9 d0 ff ff ff       	jmpq   4003e0 <_init+0x18>

0000000000400410 <__libc_start_main@plt>:
  400410:	ff 25 42 05 20 00    	jmpq   *0x200542(%rip)        # 600958 <_GLOBAL_OFFSET_TABLE_+0x28>
  400416:	68 02 00 00 00       	pushq  $0x2
  40041b:	e9 c0 ff ff ff       	jmpq   4003e0 <_init+0x18>

Disassembly of section .text:

0000000000400420 <_start>:
  400420:	31 ed                	xor    %ebp,%ebp
  400422:	49 89 d1             	mov    %rdx,%r9
  400425:	5e                   	pop    %rsi
  400426:	48 89 e2             	mov    %rsp,%rdx
  400429:	48 83 e4 f0          	and    $0xfffffffffffffff0,%rsp
  40042d:	50                   	push   %rax
  40042e:	54                   	push   %rsp
  40042f:	49 c7 c0 80 05 40 00 	mov    $0x400580,%r8
  400436:	48 c7 c1 90 05 40 00 	mov    $0x400590,%rcx
  40043d:	48 c7 c7 26 05 40 00 	mov    $0x400526,%rdi
  400444:	e8 c7 ff ff ff       	callq  400410 <__libc_start_main@plt>
  400449:	f4                   	hlt    
  40044a:	90                   	nop
  40044b:	90                   	nop

000000000040044c <call_gmon_start>:
  40044c:	48 83 ec 08          	sub    $0x8,%rsp
  400450:	48 8b 05 d1 04 20 00 	mov    0x2004d1(%rip),%rax        # 600928 <_DYNAMIC+0x190>
  400457:	48 85 c0             	test   %rax,%rax
  40045a:	74 02                	je     40045e <call_gmon_start+0x12>
  40045c:	ff d0                	callq  *%rax
  40045e:	48 83 c4 08          	add    $0x8,%rsp
  400462:	c3                   	retq   
  400463:	90                   	nop
  400464:	90                   	nop
  400465:	90                   	nop
  400466:	90                   	nop
  400467:	90                   	nop
  400468:	90                   	nop
  400469:	90                   	nop
  40046a:	90                   	nop
  40046b:	90                   	nop
  40046c:	90                   	nop
  40046d:	90                   	nop
  40046e:	90                   	nop
  40046f:	90                   	nop

0000000000400470 <__do_global_dtors_aux>:
  400470:	55                   	push   %rbp
  400471:	48 89 e5             	mov    %rsp,%rbp
  400474:	53                   	push   %rbx
  400475:	48 83 ec 08          	sub    $0x8,%rsp
  400479:	80 3d f0 04 20 00 00 	cmpb   $0x0,0x2004f0(%rip)        # 600970 <completed.6349>
  400480:	75 4b                	jne    4004cd <__do_global_dtors_aux+0x5d>
  400482:	bb 88 07 60 00       	mov    $0x600788,%ebx
  400487:	48 8b 05 ea 04 20 00 	mov    0x2004ea(%rip),%rax        # 600978 <dtor_idx.6351>
  40048e:	48 81 eb 80 07 60 00 	sub    $0x600780,%rbx
  400495:	48 c1 fb 03          	sar    $0x3,%rbx
  400499:	48 83 eb 01          	sub    $0x1,%rbx
  40049d:	48 39 d8             	cmp    %rbx,%rax
  4004a0:	73 24                	jae    4004c6 <__do_global_dtors_aux+0x56>
  4004a2:	66 0f 1f 44 00 00    	nopw   0x0(%rax,%rax,1)
  4004a8:	48 83 c0 01          	add    $0x1,%rax
  4004ac:	48 89 05 c5 04 20 00 	mov    %rax,0x2004c5(%rip)        # 600978 <dtor_idx.6351>
  4004b3:	ff 14 c5 80 07 60 00 	callq  *0x600780(,%rax,8)
  4004ba:	48 8b 05 b7 04 20 00 	mov    0x2004b7(%rip),%rax        # 600978 <dtor_idx.6351>
  4004c1:	48 39 d8             	cmp    %rbx,%rax
  4004c4:	72 e2                	jb     4004a8 <__do_global_dtors_aux+0x38>
  4004c6:	c6 05 a3 04 20 00 01 	movb   $0x1,0x2004a3(%rip)        # 600970 <completed.6349>
  4004cd:	48 83 c4 08          	add    $0x8,%rsp
  4004d1:	5b                   	pop    %rbx
  4004d2:	c9                   	leaveq 
  4004d3:	c3                   	retq   
  4004d4:	66 66 66 2e 0f 1f 84 	data32 data32 nopw %cs:0x0(%rax,%rax,1)
  4004db:	00 00 00 00 00 

00000000004004e0 <frame_dummy>:
  4004e0:	48 83 3d a8 02 20 00 	cmpq   $0x0,0x2002a8(%rip)        # 600790 <__JCR_END__>
  4004e7:	00 
  4004e8:	55                   	push   %rbp
  4004e9:	48 89 e5             	mov    %rsp,%rbp
  4004ec:	74 12                	je     400500 <frame_dummy+0x20>
  4004ee:	b8 00 00 00 00       	mov    $0x0,%eax
  4004f3:	48 85 c0             	test   %rax,%rax
  4004f6:	74 08                	je     400500 <frame_dummy+0x20>
  4004f8:	bf 90 07 60 00       	mov    $0x600790,%edi
  4004fd:	c9                   	leaveq 
  4004fe:	ff e0                	jmpq   *%rax
  400500:	c9                   	leaveq 
  400501:	c3                   	retq   
  400502:	90                   	nop
  400503:	90                   	nop

0000000000400504 <show>:
#include <stdio.h>

int show(int isShow)
{
  400504:	55                   	push   %rbp
  400505:	48 89 e5             	mov    %rsp,%rbp
  400508:	48 83 ec 10          	sub    $0x10,%rsp
  40050c:	89 7d fc             	mov    %edi,-0x4(%rbp)
	if(isShow)
  40050f:	83 7d fc 00          	cmpl   $0x0,-0x4(%rbp)
  400513:	74 0a                	je     40051f <show+0x1b>
		printf("in show\n");
  400515:	bf 78 06 40 00       	mov    $0x400678,%edi
  40051a:	e8 e1 fe ff ff       	callq  400400 <puts@plt>

	return 0;
  40051f:	b8 00 00 00 00       	mov    $0x0,%eax
}
  400524:	c9                   	leaveq 
  400525:	c3                   	retq   

0000000000400526 <main>:

/*初始化的var 将增加elf文件的size.*/
/*int gVarArrary[1024*1024];*/
/*int gVarArrary2[1024*1024]={1};*/
int main(int argc,char **argv)
{
  400526:	55                   	push   %rbp
  400527:	48 89 e5             	mov    %rsp,%rbp
  40052a:	53                   	push   %rbx
  40052b:	48 83 ec 28          	sub    $0x28,%rsp
  40052f:	89 7d dc             	mov    %edi,-0x24(%rbp)
  400532:	48 89 75 d0          	mov    %rsi,-0x30(%rbp)
	int ret = 0;
  400536:	c7 45 ec 00 00 00 00 	movl   $0x0,-0x14(%rbp)
	static int sVar = 19;
	static int sVarUninit;
	printf("in main sVar:%#x=%d,gVar:%#x=%d \n",sVar,sVar,gVar,gVar);
  40053d:	8b 35 21 04 20 00    	mov    0x200421(%rip),%esi        # 600964 <gVar>
  400543:	8b 0d 1b 04 20 00    	mov    0x20041b(%rip),%ecx        # 600964 <gVar>
  400549:	8b 15 19 04 20 00    	mov    0x200419(%rip),%edx        # 600968 <sVar.2061>
  40054f:	8b 1d 13 04 20 00    	mov    0x200413(%rip),%ebx        # 600968 <sVar.2061>
  400555:	b8 80 06 40 00       	mov    $0x400680,%eax
  40055a:	41 89 f0             	mov    %esi,%r8d
  40055d:	89 de                	mov    %ebx,%esi
  40055f:	48 89 c7             	mov    %rax,%rdi
  400562:	b8 00 00 00 00       	mov    $0x0,%eax
  400567:	e8 84 fe ff ff       	callq  4003f0 <printf@plt>
	
	show(1);
  40056c:	bf 01 00 00 00       	mov    $0x1,%edi
  400571:	e8 8e ff ff ff       	callq  400504 <show>

	return ret;
  400576:	8b 45 ec             	mov    -0x14(%rbp),%eax
}
  400579:	48 83 c4 28          	add    $0x28,%rsp
  40057d:	5b                   	pop    %rbx
  40057e:	c9                   	leaveq 
  40057f:	c3                   	retq   

0000000000400580 <__libc_csu_fini>:
  400580:	f3 c3                	repz retq 
  400582:	66 66 66 66 66 2e 0f 	data32 data32 data32 data32 nopw %cs:0x0(%rax,%rax,1)
  400589:	1f 84 00 00 00 00 00 

0000000000400590 <__libc_csu_init>:
  400590:	48 89 6c 24 d8       	mov    %rbp,-0x28(%rsp)
  400595:	4c 89 64 24 e0       	mov    %r12,-0x20(%rsp)
  40059a:	48 8d 2d cb 01 20 00 	lea    0x2001cb(%rip),%rbp        # 60076c <__init_array_end>
  4005a1:	4c 8d 25 c4 01 20 00 	lea    0x2001c4(%rip),%r12        # 60076c <__init_array_end>
  4005a8:	4c 89 6c 24 e8       	mov    %r13,-0x18(%rsp)
  4005ad:	4c 89 74 24 f0       	mov    %r14,-0x10(%rsp)
  4005b2:	4c 89 7c 24 f8       	mov    %r15,-0x8(%rsp)
  4005b7:	48 89 5c 24 d0       	mov    %rbx,-0x30(%rsp)
  4005bc:	48 83 ec 38          	sub    $0x38,%rsp
  4005c0:	4c 29 e5             	sub    %r12,%rbp
  4005c3:	41 89 fd             	mov    %edi,%r13d
  4005c6:	49 89 f6             	mov    %rsi,%r14
  4005c9:	48 c1 fd 03          	sar    $0x3,%rbp
  4005cd:	49 89 d7             	mov    %rdx,%r15
  4005d0:	e8 f3 fd ff ff       	callq  4003c8 <_init>
  4005d5:	48 85 ed             	test   %rbp,%rbp
  4005d8:	74 1c                	je     4005f6 <__libc_csu_init+0x66>
  4005da:	31 db                	xor    %ebx,%ebx
  4005dc:	0f 1f 40 00          	nopl   0x0(%rax)
  4005e0:	4c 89 fa             	mov    %r15,%rdx
  4005e3:	4c 89 f6             	mov    %r14,%rsi
  4005e6:	44 89 ef             	mov    %r13d,%edi
  4005e9:	41 ff 14 dc          	callq  *(%r12,%rbx,8)
  4005ed:	48 83 c3 01          	add    $0x1,%rbx
  4005f1:	48 39 eb             	cmp    %rbp,%rbx
  4005f4:	72 ea                	jb     4005e0 <__libc_csu_init+0x50>
  4005f6:	48 8b 5c 24 08       	mov    0x8(%rsp),%rbx
  4005fb:	48 8b 6c 24 10       	mov    0x10(%rsp),%rbp
  400600:	4c 8b 64 24 18       	mov    0x18(%rsp),%r12
  400605:	4c 8b 6c 24 20       	mov    0x20(%rsp),%r13
  40060a:	4c 8b 74 24 28       	mov    0x28(%rsp),%r14
  40060f:	4c 8b 7c 24 30       	mov    0x30(%rsp),%r15
  400614:	48 83 c4 38          	add    $0x38,%rsp
  400618:	c3                   	retq   
  400619:	90                   	nop
  40061a:	90                   	nop
  40061b:	90                   	nop
  40061c:	90                   	nop
  40061d:	90                   	nop
  40061e:	90                   	nop
  40061f:	90                   	nop

0000000000400620 <__do_global_ctors_aux>:
  400620:	55                   	push   %rbp
  400621:	48 89 e5             	mov    %rsp,%rbp
  400624:	53                   	push   %rbx
  400625:	48 83 ec 08          	sub    $0x8,%rsp
  400629:	48 8b 05 40 01 20 00 	mov    0x200140(%rip),%rax        # 600770 <__CTOR_LIST__>
  400630:	48 83 f8 ff          	cmp    $0xffffffffffffffff,%rax
  400634:	74 19                	je     40064f <__do_global_ctors_aux+0x2f>
  400636:	bb 70 07 60 00       	mov    $0x600770,%ebx
  40063b:	0f 1f 44 00 00       	nopl   0x0(%rax,%rax,1)
  400640:	48 83 eb 08          	sub    $0x8,%rbx
  400644:	ff d0                	callq  *%rax
  400646:	48 8b 03             	mov    (%rbx),%rax
  400649:	48 83 f8 ff          	cmp    $0xffffffffffffffff,%rax
  40064d:	75 f1                	jne    400640 <__do_global_ctors_aux+0x20>
  40064f:	48 83 c4 08          	add    $0x8,%rsp
  400653:	5b                   	pop    %rbx
  400654:	c9                   	leaveq 
  400655:	c3                   	retq   
  400656:	90                   	nop
  400657:	90                   	nop

Disassembly of section .fini:

0000000000400658 <_fini>:
  400658:	48 83 ec 08          	sub    $0x8,%rsp
  40065c:	e8 0f fe ff ff       	callq  400470 <__do_global_dtors_aux>
  400661:	48 83 c4 08          	add    $0x8,%rsp
  400665:	c3                   	retq   
