
./libhello.so:     file format elf64-x86-64
./libhello.so

Contents of section .note.gnu.build-id:
 0190 04000000 14000000 03000000 474e5500  ............GNU.
 01a0 7907e9aa 773165d1 f79d6769 28c4781a  y...w1e...gi(.x.
 01b0 a4df30b9                             ..0.            
Contents of section .gnu.hash:
 01b8 03000000 06000000 01000000 06000000  ................
 01c8 8cd12401 10044009 06000000 08000000  ..$...@.........
 01d8 0c000000 bae3927c 4345d5ec cc91880b  .......|CE......
 01e8 d871581c 12092a10 b98df10e ead3ef0e  .qX...*.........
 01f8 03a2d0c2                             ....            
Contents of section .dynsym:
 0200 00000000 00000000 00000000 00000000  ................
 0210 00000000 00000000 00000000 03000900  ................
 0220 d0040000 00000000 00000000 00000000  ................
 0230 01000000 20000000 00000000 00000000  .... ...........
 0240 00000000 00000000 2b000000 20000000  ........+... ...
 0250 00000000 00000000 00000000 00000000  ................
 0260 49000000 12000000 00000000 00000000  I...............
 0270 00000000 00000000 1c000000 22000000  ............"...
 0280 00000000 00000000 00000000 00000000  ................
 0290 73000000 1000f1ff 90092000 00000000  s......... .....
 02a0 00000000 00000000 60000000 1000f1ff  ........`.......
 02b0 80092000 00000000 00000000 00000000  .. .............
 02c0 3f000000 11001600 00092000 00000000  ?......... .....
 02d0 80000000 00000000 67000000 1000f1ff  ........g.......
 02e0 80092000 00000000 00000000 00000000  .. .............
 02f0 43000000 12000b00 fc050000 00000000  C...............
 0300 15000000 00000000 10000000 12000900  ................
 0310 d0040000 00000000 00000000 00000000  ................
 0320 16000000 12000c00 68060000 00000000  ........h.......
 0330 00000000 00000000 4e000000 12000b00  ........N.......
 0340 11060000 00000000 10000000 00000000  ................
Contents of section .dynstr:
 0350 005f5f67 6d6f6e5f 73746172 745f5f00  .__gmon_start__.
 0360 5f696e69 74005f66 696e6900 5f5f6378  _init._fini.__cx
 0370 615f6669 6e616c69 7a65005f 4a765f52  a_finalize._Jv_R
 0380 65676973 74657243 6c617373 6573006d  egisterClasses.m
 0390 73670070 72696e74 00707574 73007072  sg.print.puts.pr
 03a0 696e745f 31006c69 62632e73 6f2e3600  int_1.libc.so.6.
 03b0 5f656461 7461005f 5f627373 5f737461  _edata.__bss_sta
 03c0 7274005f 656e6400 474c4942 435f322e  rt._end.GLIBC_2.
 03d0 322e3500                             2.5.            
Contents of section .gnu.version:
 03d4 00000000 00000000 02000200 01000100  ................
 03e4 01000100 01000100 01000100           ............    
Contents of section .gnu.version_r:
 03f0 01000100 56000000 10000000 00000000  ....V...........
 0400 751a6909 00000200 78000000 00000000  u.i.....x.......
Contents of section .rela.dyn:
 0410 20072000 00000000 08000000 00000000   . .............
 0420 20072000 00000000 a8082000 00000000   . ....... .....
 0430 06000000 02000000 00000000 00000000  ................
 0440 b0082000 00000000 06000000 03000000  .. .............
 0450 00000000 00000000 b8082000 00000000  .......... .....
 0460 06000000 05000000 00000000 00000000  ................
 0470 c0082000 00000000 06000000 08000000  .. .............
 0480 00000000 00000000                    ........        
Contents of section .rela.plt:
 0488 e0082000 00000000 07000000 04000000  .. .............
 0498 00000000 00000000 e8082000 00000000  .......... .....
 04a8 07000000 05000000 00000000 00000000  ................
 04b8 f0082000 00000000 07000000 0a000000  .. .............
 04c8 00000000 00000000                    ........        
Contents of section .init:
 04d0 4883ec08 e8570000 00e8f200 0000e84d  H....W.........M
 04e0 01000048 83c408c3                    ...H....        
Contents of section .plt:
 04e8 ff35e203 2000ff25 e4032000 0f1f4000  .5.. ..%.. ...@.
 04f8 ff25e203 20006800 000000e9 e0ffffff  .%.. .h.........
 0508 ff25da03 20006801 000000e9 d0ffffff  .%.. .h.........
 0518 ff25d203 20006802 000000e9 c0ffffff  .%.. .h.........
Contents of section .text:
 0530 4883ec08 488b056d 03200048 85c07402  H...H..m. .H..t.
 0540 ffd04883 c408c390 90909090 90909090  ..H.............
 0550 55803d28 04200000 4889e541 54537562  U.=(. ..H..ATSub
 0560 48833d50 03200000 740c488d 3daf0120  H.=P. ..t.H.=.. 
 0570 00e892ff ffff488d 1d930120 004c8d25  ......H.... .L.%
 0580 84012000 488b05fd 0320004c 29e348c1  .. .H.... .L).H.
 0590 fb034883 eb014839 d873200f 1f440000  ..H...H9.s ..D..
 05a0 4883c001 488905dd 03200041 ff14c448  H...H.... .A...H
 05b0 8b05d203 20004839 d872e5c6 05be0320  .... .H9.r..... 
 05c0 00015b41 5cc9c366 0f1f8400 00000000  ..[A\..f........
 05d0 48833d40 01200000 554889e5 741a488b  H.=@. ..UH..t.H.
 05e0 05cb0220 004885c0 740e488d 3d270120  ... .H..t.H.='. 
 05f0 00c9ffe0 0f1f4000 c9c39090 554889e5  ......@.....UH..
 0600 488b05b9 02200048 89c7e8e9 feffffc9  H.... .H........
 0610 c3554889 e5b80000 0000e8f9 feffffc9  .UH.............
 0620 c3909090 90909090 90909090 90909090  ................
 0630 554889e5 534883ec 08488b05 b8002000  UH..SH...H.... .
 0640 4883f8ff 7419488d 1dab0020 000f1f00  H...t.H.... ....
 0650 4883eb08 ffd0488b 034883f8 ff75f148  H.....H..H...u.H
 0660 83c4085b c9c39090                    ...[....        
Contents of section .fini:
 0668 4883ec08 e8dffeff ff4883c4 08c3      H........H....  
Contents of section .eh_frame_hdr:
 0678 011b033b 1c000000 02000000 84ffffff  ...;............
 0688 38000000 99ffffff 58000000           8.......X...    
Contents of section .eh_frame:
 0698 14000000 00000000 017a5200 01781001  .........zR..x..
 06a8 1b0c0708 90010000 1c000000 1c000000  ................
 06b8 44ffffff 15000000 00410e10 8602430d  D........A....C.
 06c8 06500c07 08000000 1c000000 3c000000  .P..........<...
 06d8 39ffffff 10000000 00410e10 8602430d  9........A....C.
 06e8 064b0c07 08000000 00000000           .K..........    
Contents of section .ctors:
 2006f8 ffffffff ffffffff 00000000 00000000  ................
Contents of section .dtors:
 200708 ffffffff ffffffff 00000000 00000000  ................
Contents of section .jcr:
 200718 00000000 00000000                    ........        
Contents of section .data.rel.ro:
 200720 20072000 00000000                     . .....        
Contents of section .dynamic:
 200728 01000000 00000000 56000000 00000000  ........V.......
 200738 0c000000 00000000 d0040000 00000000  ................
 200748 0d000000 00000000 68060000 00000000  ........h.......
 200758 f5feff6f 00000000 b8010000 00000000  ...o............
 200768 05000000 00000000 50030000 00000000  ........P.......
 200778 06000000 00000000 00020000 00000000  ................
 200788 0a000000 00000000 84000000 00000000  ................
 200798 0b000000 00000000 18000000 00000000  ................
 2007a8 03000000 00000000 c8082000 00000000  .......... .....
 2007b8 02000000 00000000 48000000 00000000  ........H.......
 2007c8 14000000 00000000 07000000 00000000  ................
 2007d8 17000000 00000000 88040000 00000000  ................
 2007e8 07000000 00000000 10040000 00000000  ................
 2007f8 08000000 00000000 78000000 00000000  ........x.......
 200808 09000000 00000000 18000000 00000000  ................
 200818 feffff6f 00000000 f0030000 00000000  ...o............
 200828 ffffff6f 00000000 01000000 00000000  ...o............
 200838 f0ffff6f 00000000 d4030000 00000000  ...o............
 200848 f9ffff6f 00000000 01000000 00000000  ...o............
 200858 00000000 00000000 00000000 00000000  ................
 200868 00000000 00000000 00000000 00000000  ................
 200878 00000000 00000000 00000000 00000000  ................
 200888 00000000 00000000 00000000 00000000  ................
 200898 00000000 00000000 00000000 00000000  ................
Contents of section .got:
 2008a8 00000000 00000000 00000000 00000000  ................
 2008b8 00000000 00000000 00000000 00000000  ................
Contents of section .got.plt:
 2008c8 28072000 00000000 00000000 00000000  (. .............
 2008d8 00000000 00000000 fe040000 00000000  ................
 2008e8 0e050000 00000000 1e050000 00000000  ................
Contents of section .data:
 200900 48656c6c 6f20776f 726c6400 00000000  Hello world.....
 200910 00000000 00000000 00000000 00000000  ................
 200920 00000000 00000000 00000000 00000000  ................
 200930 00000000 00000000 00000000 00000000  ................
 200940 00000000 00000000 00000000 00000000  ................
 200950 00000000 00000000 00000000 00000000  ................
 200960 00000000 00000000 00000000 00000000  ................
 200970 00000000 00000000 00000000 00000000  ................
Contents of section .comment:
 0000 4743433a 2028474e 55292034 2e342e36  GCC: (GNU) 4.4.6
 0010 20323031 32303330 35202852 65642048   20120305 (Red H
 0020 61742034 2e342e36 2d342900 4743433a  at 4.4.6-4).GCC:
 0030 2028474e 55292034 2e342e37 20323031   (GNU) 4.4.7 201
 0040 32303331 33202852 65642048 61742034  20313 (Red Hat 4
 0050 2e342e37 2d332900                    .4.7-3).        

Disassembly of section .init:

00000000000004d0 <_init>:
 4d0:	48 83 ec 08          	sub    $0x8,%rsp
 4d4:	e8 57 00 00 00       	callq  530 <call_gmon_start>
 4d9:	e8 f2 00 00 00       	callq  5d0 <frame_dummy>
 4de:	e8 4d 01 00 00       	callq  630 <__do_global_ctors_aux>
 4e3:	48 83 c4 08          	add    $0x8,%rsp
 4e7:	c3                   	retq   

Disassembly of section .plt:

00000000000004e8 <puts@plt-0x10>:
 4e8:	ff 35 e2 03 20 00    	pushq  0x2003e2(%rip)        # 2008d0 <_GLOBAL_OFFSET_TABLE_+0x8>
 4ee:	ff 25 e4 03 20 00    	jmpq   *0x2003e4(%rip)        # 2008d8 <_GLOBAL_OFFSET_TABLE_+0x10>
 4f4:	0f 1f 40 00          	nopl   0x0(%rax)

00000000000004f8 <puts@plt>:
 4f8:	ff 25 e2 03 20 00    	jmpq   *0x2003e2(%rip)        # 2008e0 <_GLOBAL_OFFSET_TABLE_+0x18>
 4fe:	68 00 00 00 00       	pushq  $0x0
 503:	e9 e0 ff ff ff       	jmpq   4e8 <_init+0x18>

0000000000000508 <__cxa_finalize@plt>:
 508:	ff 25 da 03 20 00    	jmpq   *0x2003da(%rip)        # 2008e8 <_GLOBAL_OFFSET_TABLE_+0x20>
 50e:	68 01 00 00 00       	pushq  $0x1
 513:	e9 d0 ff ff ff       	jmpq   4e8 <_init+0x18>

0000000000000518 <print@plt>:
 518:	ff 25 d2 03 20 00    	jmpq   *0x2003d2(%rip)        # 2008f0 <_GLOBAL_OFFSET_TABLE_+0x28>
 51e:	68 02 00 00 00       	pushq  $0x2
 523:	e9 c0 ff ff ff       	jmpq   4e8 <_init+0x18>

Disassembly of section .text:

0000000000000530 <call_gmon_start>:
 530:	48 83 ec 08          	sub    $0x8,%rsp
 534:	48 8b 05 6d 03 20 00 	mov    0x20036d(%rip),%rax        # 2008a8 <_DYNAMIC+0x180>
 53b:	48 85 c0             	test   %rax,%rax
 53e:	74 02                	je     542 <call_gmon_start+0x12>
 540:	ff d0                	callq  *%rax
 542:	48 83 c4 08          	add    $0x8,%rsp
 546:	c3                   	retq   
 547:	90                   	nop
 548:	90                   	nop
 549:	90                   	nop
 54a:	90                   	nop
 54b:	90                   	nop
 54c:	90                   	nop
 54d:	90                   	nop
 54e:	90                   	nop
 54f:	90                   	nop

0000000000000550 <__do_global_dtors_aux>:
 550:	55                   	push   %rbp
 551:	80 3d 28 04 20 00 00 	cmpb   $0x0,0x200428(%rip)        # 200980 <__bss_start>
 558:	48 89 e5             	mov    %rsp,%rbp
 55b:	41 54                	push   %r12
 55d:	53                   	push   %rbx
 55e:	75 62                	jne    5c2 <__do_global_dtors_aux+0x72>
 560:	48 83 3d 50 03 20 00 	cmpq   $0x0,0x200350(%rip)        # 2008b8 <_DYNAMIC+0x190>
 567:	00 
 568:	74 0c                	je     576 <__do_global_dtors_aux+0x26>
 56a:	48 8d 3d af 01 20 00 	lea    0x2001af(%rip),%rdi        # 200720 <__dso_handle>
 571:	e8 92 ff ff ff       	callq  508 <__cxa_finalize@plt>
 576:	48 8d 1d 93 01 20 00 	lea    0x200193(%rip),%rbx        # 200710 <__DTOR_END__>
 57d:	4c 8d 25 84 01 20 00 	lea    0x200184(%rip),%r12        # 200708 <__DTOR_LIST__>
 584:	48 8b 05 fd 03 20 00 	mov    0x2003fd(%rip),%rax        # 200988 <dtor_idx.6351>
 58b:	4c 29 e3             	sub    %r12,%rbx
 58e:	48 c1 fb 03          	sar    $0x3,%rbx
 592:	48 83 eb 01          	sub    $0x1,%rbx
 596:	48 39 d8             	cmp    %rbx,%rax
 599:	73 20                	jae    5bb <__do_global_dtors_aux+0x6b>
 59b:	0f 1f 44 00 00       	nopl   0x0(%rax,%rax,1)
 5a0:	48 83 c0 01          	add    $0x1,%rax
 5a4:	48 89 05 dd 03 20 00 	mov    %rax,0x2003dd(%rip)        # 200988 <dtor_idx.6351>
 5ab:	41 ff 14 c4          	callq  *(%r12,%rax,8)
 5af:	48 8b 05 d2 03 20 00 	mov    0x2003d2(%rip),%rax        # 200988 <dtor_idx.6351>
 5b6:	48 39 d8             	cmp    %rbx,%rax
 5b9:	72 e5                	jb     5a0 <__do_global_dtors_aux+0x50>
 5bb:	c6 05 be 03 20 00 01 	movb   $0x1,0x2003be(%rip)        # 200980 <__bss_start>
 5c2:	5b                   	pop    %rbx
 5c3:	41 5c                	pop    %r12
 5c5:	c9                   	leaveq 
 5c6:	c3                   	retq   
 5c7:	66 0f 1f 84 00 00 00 	nopw   0x0(%rax,%rax,1)
 5ce:	00 00 

00000000000005d0 <frame_dummy>:
 5d0:	48 83 3d 40 01 20 00 	cmpq   $0x0,0x200140(%rip)        # 200718 <__JCR_END__>
 5d7:	00 
 5d8:	55                   	push   %rbp
 5d9:	48 89 e5             	mov    %rsp,%rbp
 5dc:	74 1a                	je     5f8 <frame_dummy+0x28>
 5de:	48 8b 05 cb 02 20 00 	mov    0x2002cb(%rip),%rax        # 2008b0 <_DYNAMIC+0x188>
 5e5:	48 85 c0             	test   %rax,%rax
 5e8:	74 0e                	je     5f8 <frame_dummy+0x28>
 5ea:	48 8d 3d 27 01 20 00 	lea    0x200127(%rip),%rdi        # 200718 <__JCR_END__>
 5f1:	c9                   	leaveq 
 5f2:	ff e0                	jmpq   *%rax
 5f4:	0f 1f 40 00          	nopl   0x0(%rax)
 5f8:	c9                   	leaveq 
 5f9:	c3                   	retq   
 5fa:	90                   	nop
 5fb:	90                   	nop

00000000000005fc <print>:
 5fc:	55                   	push   %rbp
 5fd:	48 89 e5             	mov    %rsp,%rbp
 600:	48 8b 05 b9 02 20 00 	mov    0x2002b9(%rip),%rax        # 2008c0 <_DYNAMIC+0x198>
 607:	48 89 c7             	mov    %rax,%rdi
 60a:	e8 e9 fe ff ff       	callq  4f8 <puts@plt>
 60f:	c9                   	leaveq 
 610:	c3                   	retq   

0000000000000611 <print_1>:
 611:	55                   	push   %rbp
 612:	48 89 e5             	mov    %rsp,%rbp
 615:	b8 00 00 00 00       	mov    $0x0,%eax
 61a:	e8 f9 fe ff ff       	callq  518 <print@plt>
 61f:	c9                   	leaveq 
 620:	c3                   	retq   
 621:	90                   	nop
 622:	90                   	nop
 623:	90                   	nop
 624:	90                   	nop
 625:	90                   	nop
 626:	90                   	nop
 627:	90                   	nop
 628:	90                   	nop
 629:	90                   	nop
 62a:	90                   	nop
 62b:	90                   	nop
 62c:	90                   	nop
 62d:	90                   	nop
 62e:	90                   	nop
 62f:	90                   	nop

0000000000000630 <__do_global_ctors_aux>:
 630:	55                   	push   %rbp
 631:	48 89 e5             	mov    %rsp,%rbp
 634:	53                   	push   %rbx
 635:	48 83 ec 08          	sub    $0x8,%rsp
 639:	48 8b 05 b8 00 20 00 	mov    0x2000b8(%rip),%rax        # 2006f8 <__CTOR_LIST__>
 640:	48 83 f8 ff          	cmp    $0xffffffffffffffff,%rax
 644:	74 19                	je     65f <__do_global_ctors_aux+0x2f>
 646:	48 8d 1d ab 00 20 00 	lea    0x2000ab(%rip),%rbx        # 2006f8 <__CTOR_LIST__>
 64d:	0f 1f 00             	nopl   (%rax)
 650:	48 83 eb 08          	sub    $0x8,%rbx
 654:	ff d0                	callq  *%rax
 656:	48 8b 03             	mov    (%rbx),%rax
 659:	48 83 f8 ff          	cmp    $0xffffffffffffffff,%rax
 65d:	75 f1                	jne    650 <__do_global_ctors_aux+0x20>
 65f:	48 83 c4 08          	add    $0x8,%rsp
 663:	5b                   	pop    %rbx
 664:	c9                   	leaveq 
 665:	c3                   	retq   
 666:	90                   	nop
 667:	90                   	nop

Disassembly of section .fini:

0000000000000668 <_fini>:
 668:	48 83 ec 08          	sub    $0x8,%rsp
 66c:	e8 df fe ff ff       	callq  550 <__do_global_dtors_aux>
 671:	48 83 c4 08          	add    $0x8,%rsp
 675:	c3                   	retq   
