
./libhello.so:     file format elf64-x86-64
./libhello.so

Contents of section .note.gnu.build-id:
 0190 04000000 14000000 03000000 474e5500  ............GNU.
 01a0 0d5ad68c 1f5dd726 f3c9a50b fabfa8f8  .Z...].&........
 01b0 c6367506                             .6u.            
Contents of section .gnu.hash:
 01b8 03000000 06000000 01000000 06000000  ................
 01c8 8cd12401 10044009 06000000 08000000  ..$...@.........
 01d8 0c000000 bae3927c 4345d5ec cc91880b  .......|CE......
 01e8 d871581c 12092a10 b98df10e ead3ef0e  .qX...*.........
 01f8 03a2d0c2                             ....            
Contents of section .dynsym:
 0200 00000000 00000000 00000000 00000000  ................
 0210 00000000 00000000 00000000 03000900  ................
 0220 b8040000 00000000 00000000 00000000  ................
 0230 01000000 20000000 00000000 00000000  .... ...........
 0240 00000000 00000000 2b000000 20000000  ........+... ...
 0250 00000000 00000000 00000000 00000000  ................
 0260 43000000 12000000 00000000 00000000  C...............
 0270 00000000 00000000 1c000000 22000000  ............"...
 0280 00000000 00000000 00000000 00000000  ................
 0290 73000000 1000f1ff 50092000 00000000  s.......P. .....
 02a0 00000000 00000000 60000000 1000f1ff  ........`.......
 02b0 40092000 00000000 00000000 00000000  @. .............
 02c0 3f000000 11001600 c0082000 00000000  ?......... .....
 02d0 80000000 00000000 67000000 1000f1ff  ........g.......
 02e0 40092000 00000000 00000000 00000000  @. .............
 02f0 50000000 12000b00 cc050000 00000000  P...............
 0300 15000000 00000000 10000000 12000900  ................
 0310 b8040000 00000000 00000000 00000000  ................
 0320 16000000 12000c00 38060000 00000000  ........8.......
 0330 00000000 00000000 48000000 12000b00  ........H.......
 0340 e1050000 00000000 10000000 00000000  ................
Contents of section .dynstr:
 0350 005f5f67 6d6f6e5f 73746172 745f5f00  .__gmon_start__.
 0360 5f696e69 74005f66 696e6900 5f5f6378  _init._fini.__cx
 0370 615f6669 6e616c69 7a65005f 4a765f52  a_finalize._Jv_R
 0380 65676973 74657243 6c617373 6573006d  egisterClasses.m
 0390 73670070 75747300 7072696e 745f3100  sg.puts.print_1.
 03a0 7072696e 74006c69 62632e73 6f2e3600  print.libc.so.6.
 03b0 5f656461 7461005f 5f627373 5f737461  _edata.__bss_sta
 03c0 7274005f 656e6400 474c4942 435f322e  rt._end.GLIBC_2.
 03d0 322e3500                             2.5.            
Contents of section .gnu.version:
 03d4 00000000 00000000 02000200 01000100  ................
 03e4 01000100 01000100 01000100           ............    
Contents of section .gnu.version_r:
 03f0 01000100 56000000 10000000 00000000  ....V...........
 0400 751a6909 00000200 78000000 00000000  u.i.....x.......
Contents of section .rela.dyn:
 0410 f0062000 00000000 08000000 00000000  .. .............
 0420 f0062000 00000000 78082000 00000000  .. .....x. .....
 0430 06000000 02000000 00000000 00000000  ................
 0440 80082000 00000000 06000000 03000000  .. .............
 0450 00000000 00000000 88082000 00000000  .......... .....
 0460 06000000 05000000 00000000 00000000  ................
 0470 90082000 00000000 06000000 08000000  .. .............
 0480 00000000 00000000                    ........        
Contents of section .rela.plt:
 0488 b0082000 00000000 07000000 04000000  .. .............
 0498 00000000 00000000 b8082000 00000000  .......... .....
 04a8 07000000 05000000 00000000 00000000  ................
Contents of section .init:
 04b8 4883ec08 e83f0000 00e8da00 0000e835  H....?.........5
 04c8 01000048 83c408c3                    ...H....        
Contents of section .plt:
 04d0 ff35ca03 2000ff25 cc032000 0f1f4000  .5.. ..%.. ...@.
 04e0 ff25ca03 20006800 000000e9 e0ffffff  .%.. .h.........
 04f0 ff25c203 20006801 000000e9 d0ffffff  .%.. .h.........
Contents of section .text:
 0500 4883ec08 488b056d 03200048 85c07402  H...H..m. .H..t.
 0510 ffd04883 c408c390 90909090 90909090  ..H.............
 0520 55803d18 04200000 4889e541 54537562  U.=.. ..H..ATSub
 0530 48833d50 03200000 740c488d 3daf0120  H.=P. ..t.H.=.. 
 0540 00e8aaff ffff488d 1d930120 004c8d25  ......H.... .L.%
 0550 84012000 488b05ed 0320004c 29e348c1  .. .H.... .L).H.
 0560 fb034883 eb014839 d873200f 1f440000  ..H...H9.s ..D..
 0570 4883c001 488905cd 03200041 ff14c448  H...H.... .A...H
 0580 8b05c203 20004839 d872e5c6 05ae0320  .... .H9.r..... 
 0590 00015b41 5cc9c366 0f1f8400 00000000  ..[A\..f........
 05a0 48833d40 01200000 554889e5 741a488b  H.=@. ..UH..t.H.
 05b0 05cb0220 004885c0 740e488d 3d270120  ... .H..t.H.='. 
 05c0 00c9ffe0 0f1f4000 c9c39090 554889e5  ......@.....UH..
 05d0 488b05b9 02200048 89c7e801 ffffffc9  H.... .H........
 05e0 c3554889 e5b80000 0000e8dd ffffffc9  .UH.............
 05f0 c3909090 90909090 90909090 90909090  ................
 0600 554889e5 534883ec 08488b05 b8002000  UH..SH...H.... .
 0610 4883f8ff 7419488d 1dab0020 000f1f00  H...t.H.... ....
 0620 4883eb08 ffd0488b 034883f8 ff75f148  H.....H..H...u.H
 0630 83c4085b c9c39090                    ...[....        
Contents of section .fini:
 0638 4883ec08 e8dffeff ff4883c4 08c3      H........H....  
Contents of section .eh_frame_hdr:
 0648 011b033b 1c000000 02000000 84ffffff  ...;............
 0658 38000000 99ffffff 58000000           8.......X...    
Contents of section .eh_frame:
 0668 14000000 00000000 017a5200 01781001  .........zR..x..
 0678 1b0c0708 90010000 1c000000 1c000000  ................
 0688 44ffffff 15000000 00410e10 8602430d  D........A....C.
 0698 06500c07 08000000 1c000000 3c000000  .P..........<...
 06a8 39ffffff 10000000 00410e10 8602430d  9........A....C.
 06b8 064b0c07 08000000 00000000           .K..........    
Contents of section .ctors:
 2006c8 ffffffff ffffffff 00000000 00000000  ................
Contents of section .dtors:
 2006d8 ffffffff ffffffff 00000000 00000000  ................
Contents of section .jcr:
 2006e8 00000000 00000000                    ........        
Contents of section .data.rel.ro:
 2006f0 f0062000 00000000                    .. .....        
Contents of section .dynamic:
 2006f8 01000000 00000000 56000000 00000000  ........V.......
 200708 0c000000 00000000 b8040000 00000000  ................
 200718 0d000000 00000000 38060000 00000000  ........8.......
 200728 f5feff6f 00000000 b8010000 00000000  ...o............
 200738 05000000 00000000 50030000 00000000  ........P.......
 200748 06000000 00000000 00020000 00000000  ................
 200758 0a000000 00000000 84000000 00000000  ................
 200768 0b000000 00000000 18000000 00000000  ................
 200778 03000000 00000000 98082000 00000000  .......... .....
 200788 02000000 00000000 30000000 00000000  ........0.......
 200798 14000000 00000000 07000000 00000000  ................
 2007a8 17000000 00000000 88040000 00000000  ................
 2007b8 07000000 00000000 10040000 00000000  ................
 2007c8 08000000 00000000 78000000 00000000  ........x.......
 2007d8 09000000 00000000 18000000 00000000  ................
 2007e8 feffff6f 00000000 f0030000 00000000  ...o............
 2007f8 ffffff6f 00000000 01000000 00000000  ...o............
 200808 f0ffff6f 00000000 d4030000 00000000  ...o............
 200818 f9ffff6f 00000000 01000000 00000000  ...o............
 200828 00000000 00000000 00000000 00000000  ................
 200838 00000000 00000000 00000000 00000000  ................
 200848 00000000 00000000 00000000 00000000  ................
 200858 00000000 00000000 00000000 00000000  ................
 200868 00000000 00000000 00000000 00000000  ................
Contents of section .got:
 200878 00000000 00000000 00000000 00000000  ................
 200888 00000000 00000000 00000000 00000000  ................
Contents of section .got.plt:
 200898 f8062000 00000000 00000000 00000000  .. .............
 2008a8 00000000 00000000 e6040000 00000000  ................
 2008b8 f6040000 00000000                    ........        
Contents of section .data:
 2008c0 48656c6c 6f20776f 726c6400 00000000  Hello world.....
 2008d0 00000000 00000000 00000000 00000000  ................
 2008e0 00000000 00000000 00000000 00000000  ................
 2008f0 00000000 00000000 00000000 00000000  ................
 200900 00000000 00000000 00000000 00000000  ................
 200910 00000000 00000000 00000000 00000000  ................
 200920 00000000 00000000 00000000 00000000  ................
 200930 00000000 00000000 00000000 00000000  ................
Contents of section .comment:
 0000 4743433a 2028474e 55292034 2e342e36  GCC: (GNU) 4.4.6
 0010 20323031 32303330 35202852 65642048   20120305 (Red H
 0020 61742034 2e342e36 2d342900 4743433a  at 4.4.6-4).GCC:
 0030 2028474e 55292034 2e342e37 20323031   (GNU) 4.4.7 201
 0040 32303331 33202852 65642048 61742034  20313 (Red Hat 4
 0050 2e342e37 2d332900                    .4.7-3).        

Disassembly of section .init:

00000000000004b8 <_init>:
 4b8:	48 83 ec 08          	sub    $0x8,%rsp
 4bc:	e8 3f 00 00 00       	callq  500 <call_gmon_start>
 4c1:	e8 da 00 00 00       	callq  5a0 <frame_dummy>
 4c6:	e8 35 01 00 00       	callq  600 <__do_global_ctors_aux>
 4cb:	48 83 c4 08          	add    $0x8,%rsp
 4cf:	c3                   	retq   

Disassembly of section .plt:

00000000000004d0 <puts@plt-0x10>:
 4d0:	ff 35 ca 03 20 00    	pushq  0x2003ca(%rip)        # 2008a0 <_GLOBAL_OFFSET_TABLE_+0x8>
 4d6:	ff 25 cc 03 20 00    	jmpq   *0x2003cc(%rip)        # 2008a8 <_GLOBAL_OFFSET_TABLE_+0x10>
 4dc:	0f 1f 40 00          	nopl   0x0(%rax)

00000000000004e0 <puts@plt>:
 4e0:	ff 25 ca 03 20 00    	jmpq   *0x2003ca(%rip)        # 2008b0 <_GLOBAL_OFFSET_TABLE_+0x18>
 4e6:	68 00 00 00 00       	pushq  $0x0
 4eb:	e9 e0 ff ff ff       	jmpq   4d0 <_init+0x18>

00000000000004f0 <__cxa_finalize@plt>:
 4f0:	ff 25 c2 03 20 00    	jmpq   *0x2003c2(%rip)        # 2008b8 <_GLOBAL_OFFSET_TABLE_+0x20>
 4f6:	68 01 00 00 00       	pushq  $0x1
 4fb:	e9 d0 ff ff ff       	jmpq   4d0 <_init+0x18>

Disassembly of section .text:

0000000000000500 <call_gmon_start>:
 500:	48 83 ec 08          	sub    $0x8,%rsp
 504:	48 8b 05 6d 03 20 00 	mov    0x20036d(%rip),%rax        # 200878 <_DYNAMIC+0x180>
 50b:	48 85 c0             	test   %rax,%rax
 50e:	74 02                	je     512 <call_gmon_start+0x12>
 510:	ff d0                	callq  *%rax
 512:	48 83 c4 08          	add    $0x8,%rsp
 516:	c3                   	retq   
 517:	90                   	nop
 518:	90                   	nop
 519:	90                   	nop
 51a:	90                   	nop
 51b:	90                   	nop
 51c:	90                   	nop
 51d:	90                   	nop
 51e:	90                   	nop
 51f:	90                   	nop

0000000000000520 <__do_global_dtors_aux>:
 520:	55                   	push   %rbp
 521:	80 3d 18 04 20 00 00 	cmpb   $0x0,0x200418(%rip)        # 200940 <__bss_start>
 528:	48 89 e5             	mov    %rsp,%rbp
 52b:	41 54                	push   %r12
 52d:	53                   	push   %rbx
 52e:	75 62                	jne    592 <__do_global_dtors_aux+0x72>
 530:	48 83 3d 50 03 20 00 	cmpq   $0x0,0x200350(%rip)        # 200888 <_DYNAMIC+0x190>
 537:	00 
 538:	74 0c                	je     546 <__do_global_dtors_aux+0x26>
 53a:	48 8d 3d af 01 20 00 	lea    0x2001af(%rip),%rdi        # 2006f0 <__dso_handle>
 541:	e8 aa ff ff ff       	callq  4f0 <__cxa_finalize@plt>
 546:	48 8d 1d 93 01 20 00 	lea    0x200193(%rip),%rbx        # 2006e0 <__DTOR_END__>
 54d:	4c 8d 25 84 01 20 00 	lea    0x200184(%rip),%r12        # 2006d8 <__DTOR_LIST__>
 554:	48 8b 05 ed 03 20 00 	mov    0x2003ed(%rip),%rax        # 200948 <dtor_idx.6351>
 55b:	4c 29 e3             	sub    %r12,%rbx
 55e:	48 c1 fb 03          	sar    $0x3,%rbx
 562:	48 83 eb 01          	sub    $0x1,%rbx
 566:	48 39 d8             	cmp    %rbx,%rax
 569:	73 20                	jae    58b <__do_global_dtors_aux+0x6b>
 56b:	0f 1f 44 00 00       	nopl   0x0(%rax,%rax,1)
 570:	48 83 c0 01          	add    $0x1,%rax
 574:	48 89 05 cd 03 20 00 	mov    %rax,0x2003cd(%rip)        # 200948 <dtor_idx.6351>
 57b:	41 ff 14 c4          	callq  *(%r12,%rax,8)
 57f:	48 8b 05 c2 03 20 00 	mov    0x2003c2(%rip),%rax        # 200948 <dtor_idx.6351>
 586:	48 39 d8             	cmp    %rbx,%rax
 589:	72 e5                	jb     570 <__do_global_dtors_aux+0x50>
 58b:	c6 05 ae 03 20 00 01 	movb   $0x1,0x2003ae(%rip)        # 200940 <__bss_start>
 592:	5b                   	pop    %rbx
 593:	41 5c                	pop    %r12
 595:	c9                   	leaveq 
 596:	c3                   	retq   
 597:	66 0f 1f 84 00 00 00 	nopw   0x0(%rax,%rax,1)
 59e:	00 00 

00000000000005a0 <frame_dummy>:
 5a0:	48 83 3d 40 01 20 00 	cmpq   $0x0,0x200140(%rip)        # 2006e8 <__JCR_END__>
 5a7:	00 
 5a8:	55                   	push   %rbp
 5a9:	48 89 e5             	mov    %rsp,%rbp
 5ac:	74 1a                	je     5c8 <frame_dummy+0x28>
 5ae:	48 8b 05 cb 02 20 00 	mov    0x2002cb(%rip),%rax        # 200880 <_DYNAMIC+0x188>
 5b5:	48 85 c0             	test   %rax,%rax
 5b8:	74 0e                	je     5c8 <frame_dummy+0x28>
 5ba:	48 8d 3d 27 01 20 00 	lea    0x200127(%rip),%rdi        # 2006e8 <__JCR_END__>
 5c1:	c9                   	leaveq 
 5c2:	ff e0                	jmpq   *%rax
 5c4:	0f 1f 40 00          	nopl   0x0(%rax)
 5c8:	c9                   	leaveq 
 5c9:	c3                   	retq   
 5ca:	90                   	nop
 5cb:	90                   	nop

00000000000005cc <print>:
 5cc:	55                   	push   %rbp
 5cd:	48 89 e5             	mov    %rsp,%rbp
 5d0:	48 8b 05 b9 02 20 00 	mov    0x2002b9(%rip),%rax        # 200890 <_DYNAMIC+0x198>
 5d7:	48 89 c7             	mov    %rax,%rdi
 5da:	e8 01 ff ff ff       	callq  4e0 <puts@plt>
 5df:	c9                   	leaveq 
 5e0:	c3                   	retq   

00000000000005e1 <print_1>:
 5e1:	55                   	push   %rbp
 5e2:	48 89 e5             	mov    %rsp,%rbp
 5e5:	b8 00 00 00 00       	mov    $0x0,%eax
 5ea:	e8 dd ff ff ff       	callq  5cc <print>
 5ef:	c9                   	leaveq 
 5f0:	c3                   	retq   
 5f1:	90                   	nop
 5f2:	90                   	nop
 5f3:	90                   	nop
 5f4:	90                   	nop
 5f5:	90                   	nop
 5f6:	90                   	nop
 5f7:	90                   	nop
 5f8:	90                   	nop
 5f9:	90                   	nop
 5fa:	90                   	nop
 5fb:	90                   	nop
 5fc:	90                   	nop
 5fd:	90                   	nop
 5fe:	90                   	nop
 5ff:	90                   	nop

0000000000000600 <__do_global_ctors_aux>:
 600:	55                   	push   %rbp
 601:	48 89 e5             	mov    %rsp,%rbp
 604:	53                   	push   %rbx
 605:	48 83 ec 08          	sub    $0x8,%rsp
 609:	48 8b 05 b8 00 20 00 	mov    0x2000b8(%rip),%rax        # 2006c8 <__CTOR_LIST__>
 610:	48 83 f8 ff          	cmp    $0xffffffffffffffff,%rax
 614:	74 19                	je     62f <__do_global_ctors_aux+0x2f>
 616:	48 8d 1d ab 00 20 00 	lea    0x2000ab(%rip),%rbx        # 2006c8 <__CTOR_LIST__>
 61d:	0f 1f 00             	nopl   (%rax)
 620:	48 83 eb 08          	sub    $0x8,%rbx
 624:	ff d0                	callq  *%rax
 626:	48 8b 03             	mov    (%rbx),%rax
 629:	48 83 f8 ff          	cmp    $0xffffffffffffffff,%rax
 62d:	75 f1                	jne    620 <__do_global_ctors_aux+0x20>
 62f:	48 83 c4 08          	add    $0x8,%rsp
 633:	5b                   	pop    %rbx
 634:	c9                   	leaveq 
 635:	c3                   	retq   
 636:	90                   	nop
 637:	90                   	nop

Disassembly of section .fini:

0000000000000638 <_fini>:
 638:	48 83 ec 08          	sub    $0x8,%rsp
 63c:	e8 df fe ff ff       	callq  520 <__do_global_dtors_aux>
 641:	48 83 c4 08          	add    $0x8,%rsp
 645:	c3                   	retq   
